target datalayout = "e-m:e-p270:32:32-p271:32:32-p272:64:64-i64:64-i128:128-f80:128-n8:16:32:64-S128"
target triple = "x86_64-unknown-linux-gnu"

%"class.std::__cxx11::basic_string" = type { %"struct.std::__cxx11::basic_string<char>::_Alloc_hider", i64, %union.anon }
%"struct.std::__cxx11::basic_string<char>::_Alloc_hider" = type { ptr }
%union.anon = type { i64, [8 x i8] }
%"struct.Imf_3_2::DeepTiledInputFile::Data" = type <{ %"class.std::mutex", %"class.Imf_3_2::Header", %"class.Imf_3_2::TileDescription", i32, [4 x i8], %"class.Imf_3_2::DeepFrameBuffer", i32, i32, i32, i32, i32, i32, i32, [4 x i8], ptr, ptr, %"class.Imf_3_2::TileOffsets", i8, [7 x i8], %"class.std::vector.11", i32, i8, [3 x i8], i32, [4 x i8], ptr, %"class.std::vector.16", i8, [7 x i8], ptr, i64, i64, i32, i32, %"class.Imf_3_2::Array", ptr, i64, i32, [4 x i8], ptr, i8, [7 x i8] }>
%"class.std::mutex" = type { %"class.std::__mutex_base" }
%"class.std::__mutex_base" = type { %union.pthread_mutex_t }
%union.pthread_mutex_t = type { %struct.__pthread_mutex_s }
%struct.__pthread_mutex_s = type { i32, i32, i32, i32, i32, i16, i16, %struct.__pthread_internal_list }
%struct.__pthread_internal_list = type { ptr, ptr }
%"class.Imf_3_2::Header" = type <{ %"class.std::map", i8, [7 x i8] }>
%"class.std::map" = type { %"class.std::_Rb_tree" }
%"class.std::_Rb_tree" = type { %"struct.std::_Rb_tree<Imf_3_2::Name, std::pair<const Imf_3_2::Name, Imf_3_2::Attribute *>, std::_Select1st<std::pair<const Imf_3_2::Name, Imf_3_2::Attribute *>>, std::less<Imf_3_2::Name>>::_Rb_tree_impl" }
%"struct.std::_Rb_tree<Imf_3_2::Name, std::pair<const Imf_3_2::Name, Imf_3_2::Attribute *>, std::_Select1st<std::pair<const Imf_3_2::Name, Imf_3_2::Attribute *>>, std::less<Imf_3_2::Name>>::_Rb_tree_impl" = type { %"struct.std::_Rb_tree_key_compare", %"struct.std::_Rb_tree_header" }
%"struct.std::_Rb_tree_key_compare" = type { %"struct.std::less" }
%"struct.std::less" = type { i8 }
%"struct.std::_Rb_tree_header" = type { %"struct.std::_Rb_tree_node_base", i64 }
%"struct.std::_Rb_tree_node_base" = type { i32, ptr, ptr, ptr }
%"class.Imf_3_2::TileDescription" = type { i32, i32, i32, i32 }
%"class.Imf_3_2::DeepFrameBuffer" = type { %"class.std::map.3", %"struct.Imf_3_2::Slice" }
%"class.std::map.3" = type { %"class.std::_Rb_tree.4" }
%"class.std::_Rb_tree.4" = type { %"struct.std::_Rb_tree<Imf_3_2::Name, std::pair<const Imf_3_2::Name, Imf_3_2::DeepSlice>, std::_Select1st<std::pair<const Imf_3_2::Name, Imf_3_2::DeepSlice>>, std::less<Imf_3_2::Name>>::_Rb_tree_impl" }
%"struct.std::_Rb_tree<Imf_3_2::Name, std::pair<const Imf_3_2::Name, Imf_3_2::DeepSlice>, std::_Select1st<std::pair<const Imf_3_2::Name, Imf_3_2::DeepSlice>>, std::less<Imf_3_2::Name>>::_Rb_tree_impl" = type { %"struct.std::_Rb_tree_key_compare", %"struct.std::_Rb_tree_header" }
%"struct.Imf_3_2::Slice" = type <{ i32, [4 x i8], ptr, i64, i64, i32, i32, double, i8, i8, [6 x i8] }>
%"class.Imf_3_2::TileOffsets" = type { i32, i32, i32, %"class.std::vector" }
%"class.std::vector" = type { %"struct.std::_Vector_base" }
%"struct.std::_Vector_base" = type { %"struct.std::_Vector_base<std::vector<std::vector<unsigned long>>, std::allocator<std::vector<std::vector<unsigned long>>>>::_Vector_impl" }
%"struct.std::_Vector_base<std::vector<std::vector<unsigned long>>, std::allocator<std::vector<std::vector<unsigned long>>>>::_Vector_impl" = type { %"struct.std::_Vector_base<std::vector<std::vector<unsigned long>>, std::allocator<std::vector<std::vector<unsigned long>>>>::_Vector_impl_data" }
%"struct.std::_Vector_base<std::vector<std::vector<unsigned long>>, std::allocator<std::vector<std::vector<unsigned long>>>>::_Vector_impl_data" = type { ptr, ptr, ptr }
%"class.std::vector.11" = type { %"struct.std::_Vector_base.12" }
%"struct.std::_Vector_base.12" = type { %"struct.std::_Vector_base<Imf_3_2::(anonymous namespace)::TInSliceInfo *, std::allocator<Imf_3_2::(anonymous namespace)::TInSliceInfo *>>::_Vector_impl" }
%"struct.std::_Vector_base<Imf_3_2::(anonymous namespace)::TInSliceInfo *, std::allocator<Imf_3_2::(anonymous namespace)::TInSliceInfo *>>::_Vector_impl" = type { %"struct.std::_Vector_base<Imf_3_2::(anonymous namespace)::TInSliceInfo *, std::allocator<Imf_3_2::(anonymous namespace)::TInSliceInfo *>>::_Vector_impl_data" }
%"struct.std::_Vector_base<Imf_3_2::(anonymous namespace)::TInSliceInfo *, std::allocator<Imf_3_2::(anonymous namespace)::TInSliceInfo *>>::_Vector_impl_data" = type { ptr, ptr, ptr }
%"class.std::vector.16" = type { %"struct.std::_Vector_base.17" }
%"struct.std::_Vector_base.17" = type { %"struct.std::_Vector_base<Imf_3_2::(anonymous namespace)::TileBuffer *, std::allocator<Imf_3_2::(anonymous namespace)::TileBuffer *>>::_Vector_impl" }
%"struct.std::_Vector_base<Imf_3_2::(anonymous namespace)::TileBuffer *, std::allocator<Imf_3_2::(anonymous namespace)::TileBuffer *>>::_Vector_impl" = type { %"struct.std::_Vector_base<Imf_3_2::(anonymous namespace)::TileBuffer *, std::allocator<Imf_3_2::(anonymous namespace)::TileBuffer *>>::_Vector_impl_data" }
%"struct.std::_Vector_base<Imf_3_2::(anonymous namespace)::TileBuffer *, std::allocator<Imf_3_2::(anonymous namespace)::TileBuffer *>>::_Vector_impl_data" = type { ptr, ptr, ptr }
%"class.Imf_3_2::Array" = type { i64, ptr }
%"struct.Imf_3_2::InputStreamMutex" = type { %"class.std::mutex", ptr, i64 }
%"class.std::__cxx11::basic_stringstream" = type { %"class.std::basic_iostream.base", %"class.std::__cxx11::basic_stringbuf", %"class.std::basic_ios" }
%"class.std::basic_iostream.base" = type { %"class.std::basic_istream.base", %"class.std::basic_ostream.base" }
%"class.std::basic_istream.base" = type { ptr, i64 }
%"class.std::basic_ostream.base" = type { ptr }
%"class.std::__cxx11::basic_stringbuf" = type { %"class.std::basic_streambuf", i32, %"class.std::__cxx11::basic_string" }
%"class.std::basic_streambuf" = type { ptr, ptr, ptr, ptr, ptr, ptr, ptr, %"class.std::locale" }
%"class.std::locale" = type { ptr }
%"class.std::basic_ios" = type { %"class.std::ios_base", ptr, i8, i8, ptr, ptr, ptr, ptr }
%"class.std::ios_base" = type { ptr, i64, i64, i32, i32, i32, ptr, %"struct.std::ios_base::_Words", [8 x %"struct.std::ios_base::_Words"], i32, ptr, %"class.std::locale" }
%"struct.std::ios_base::_Words" = type { ptr, i64 }
%"class.Imf_3_2::DeepTiledInputFile" = type { %"class.Imf_3_2::GenericInputFile", ptr }
%"class.Imf_3_2::GenericInputFile" = type { ptr }

@_ZTIN7Iex_3_26ArgExcE = external constant ptr
@.str.44 = private unnamed_addr constant [36 x i8] c"\22 (Argument is not in valid range).\00", align 1
@.str.45 = private unnamed_addr constant [42 x i8] c"Error calling numYTiles() on image file \22\00", align 1

; Function Attrs: mustprogress uwtable
define noundef i32 @_ZNK7Imf_3_218DeepTiledInputFile9numYTilesEi(ptr noundef nonnull align 8 dereferenceable(16) %this, i32 noundef %ly) #4 align 2 personality ptr @__gxx_personality_v0 {
entry:
  %this.addr = alloca ptr, align 8
  %ly.addr = alloca i32, align 4
  %_iex_throw_s = alloca %"class.std::__cxx11::basic_stringstream", align 8
  %exn.slot = alloca ptr, align 8
  %ehselector.slot = alloca i32, align 4
  store ptr %this, ptr %this.addr, align 8
  store i32 %ly, ptr %ly.addr, align 4
  %this1 = load ptr, ptr %this.addr, align 8
  %0 = load i32, ptr %ly.addr, align 4
  %cmp = icmp slt i32 %0, 0
  br i1 %cmp, label %if.then, label %lor.lhs.false

lor.lhs.false:                                    ; preds = %entry
  %1 = load i32, ptr %ly.addr, align 4
  %_data = getelementptr inbounds %"class.Imf_3_2::DeepTiledInputFile", ptr %this1, i32 0, i32 1
  %2 = load ptr, ptr %_data, align 8
  %numYLevels = getelementptr inbounds %"struct.Imf_3_2::DeepTiledInputFile::Data", ptr %2, i32 0, i32 12
  %3 = load i32, ptr %numYLevels, align 8
  %cmp2 = icmp sge i32 %1, %3
  br i1 %cmp2, label %if.then, label %if.end

if.then:                                          ; preds = %lor.lhs.false, %entry
  br label %do.body

do.body:                                          ; preds = %if.then
  call void @_Z13iex_debugTrapv()
  call void @_ZNSt7__cxx1118basic_stringstreamIcSt11char_traitsIcESaIcEEC1Ev(ptr noundef nonnull align 8 dereferenceable(128) %_iex_throw_s)
  %add.ptr = getelementptr inbounds i8, ptr %_iex_throw_s, i64 16
  %call = invoke noundef nonnull align 8 dereferenceable(8) ptr @_ZStlsISt11char_traitsIcEERSt13basic_ostreamIcT_ES5_PKc(ptr noundef nonnull align 8 dereferenceable(8) %add.ptr, ptr noundef @.str.45)
          to label %invoke.cont unwind label %lpad

invoke.cont:                                      ; preds = %do.body
  %_data3 = getelementptr inbounds %"class.Imf_3_2::DeepTiledInputFile", ptr %this1, i32 0, i32 1
  %4 = load ptr, ptr %_data3, align 8
  %_streamData = getelementptr inbounds %"struct.Imf_3_2::DeepTiledInputFile::Data", ptr %4, i32 0, i32 39
  %5 = load ptr, ptr %_streamData, align 8
  %is = getelementptr inbounds %"struct.Imf_3_2::InputStreamMutex", ptr %5, i32 0, i32 1
  %6 = load ptr, ptr %is, align 8
  %call5 = invoke noundef ptr @_ZNK7Imf_3_27IStream8fileNameEv(ptr noundef nonnull align 8 dereferenceable(40) %6)
          to label %invoke.cont4 unwind label %lpad

invoke.cont4:                                     ; preds = %invoke.cont
  %call7 = invoke noundef nonnull align 8 dereferenceable(8) ptr @_ZStlsISt11char_traitsIcEERSt13basic_ostreamIcT_ES5_PKc(ptr noundef nonnull align 8 dereferenceable(8) %call, ptr noundef %call5)
          to label %invoke.cont6 unwind label %lpad

invoke.cont6:                                     ; preds = %invoke.cont4
  %call9 = invoke noundef nonnull align 8 dereferenceable(8) ptr @_ZStlsISt11char_traitsIcEERSt13basic_ostreamIcT_ES5_PKc(ptr noundef nonnull align 8 dereferenceable(8) %call7, ptr noundef @.str.44)
          to label %invoke.cont8 unwind label %lpad

invoke.cont8:                                     ; preds = %invoke.cont6
  %exception = call ptr @__cxa_allocate_exception(i64 72) #3
  invoke void @_ZN7Iex_3_26ArgExcC1ERNSt7__cxx1118basic_stringstreamIcSt11char_traitsIcESaIcEEE(ptr noundef nonnull align 8 dereferenceable(72) %exception, ptr noundef nonnull align 8 dereferenceable(128) %_iex_throw_s)
          to label %invoke.cont11 unwind label %lpad10

invoke.cont11:                                    ; preds = %invoke.cont8
  invoke void @__cxa_throw(ptr %exception, ptr @_ZTIN7Iex_3_26ArgExcE, ptr @_ZN7Iex_3_26ArgExcD1Ev) #16
          to label %unreachable unwind label %lpad

lpad:                                             ; preds = %invoke.cont11, %invoke.cont6, %invoke.cont4, %invoke.cont, %do.body
  %7 = landingpad { ptr, i32 }
          cleanup
  %8 = extractvalue { ptr, i32 } %7, 0
  store ptr %8, ptr %exn.slot, align 8
  %9 = extractvalue { ptr, i32 } %7, 1
  store i32 %9, ptr %ehselector.slot, align 4
  br label %ehcleanup

lpad10:                                           ; preds = %invoke.cont8
  %10 = landingpad { ptr, i32 }
          cleanup
  %11 = extractvalue { ptr, i32 } %10, 0
  store ptr %11, ptr %exn.slot, align 8
  %12 = extractvalue { ptr, i32 } %10, 1
  store i32 %12, ptr %ehselector.slot, align 4
  call void @__cxa_free_exception(ptr %exception) #3
  br label %ehcleanup

ehcleanup:                                        ; preds = %lpad10, %lpad
  call void @_ZNSt7__cxx1118basic_stringstreamIcSt11char_traitsIcESaIcEED1Ev(ptr noundef nonnull align 8 dereferenceable(128) %_iex_throw_s) #3
  br label %eh.resume

do.end:                                           ; No predecessors!
  br label %if.end

if.end:                                           ; preds = %do.end, %lor.lhs.false
  %_data12 = getelementptr inbounds %"class.Imf_3_2::DeepTiledInputFile", ptr %this1, i32 0, i32 1
  %13 = load ptr, ptr %_data12, align 8
  %numYTiles = getelementptr inbounds %"struct.Imf_3_2::DeepTiledInputFile::Data", ptr %13, i32 0, i32 15
  %14 = load ptr, ptr %numYTiles, align 8
  %15 = load i32, ptr %ly.addr, align 4
  %idxprom = sext i32 %15 to i64
  %arrayidx = getelementptr inbounds i32, ptr %14, i64 %idxprom
  %16 = load i32, ptr %arrayidx, align 4
  ret i32 %16

eh.resume:                                        ; preds = %ehcleanup
  %exn = load ptr, ptr %exn.slot, align 8
  %sel = load i32, ptr %ehselector.slot, align 4
  %lpad.val = insertvalue { ptr, i32 } poison, ptr %exn, 0
  %lpad.val13 = insertvalue { ptr, i32 } %lpad.val, i32 %sel, 1
  resume { ptr, i32 } %lpad.val13

unreachable:                                      ; preds = %invoke.cont11
  unreachable
}